; Function Attrs: mustprogress uwtable
define internal void @_ZN6duckdbL27GenericRoundFunctionDecimalINS_9hugeint_tENS_7HugeintENS_19CeilDecimalOperatorEEEvRNS_9DataChunkERNS_15ExpressionStateERNS_6VectorE(ptr noundef nonnull align 8 dereferenceable(64) %0, ptr noundef nonnull readonly align 8 captures(none) dereferenceable(176) %1, ptr noundef nonnull align 8 dereferenceable(104) %2) #0 {
  %4 = alloca %class.anon.230, align 8
  %5 = alloca %"struct.duckdb::hugeint_t", align 8
  %6 = getelementptr inbounds nuw i8, ptr %1, i64 8
  %7 = load ptr, ptr %6, align 8, !tbaa !128
  %8 = tail call noundef nonnull align 8 dereferenceable(417) ptr @_ZNK6duckdb14BaseExpression4CastINS_23BoundFunctionExpressionEEERKT_v(ptr noundef nonnull align 8 dereferenceable(56) %7)
  %9 = getelementptr inbounds nuw i8, ptr %8, i64 384
  %10 = tail call noundef nonnull align 8 dereferenceable(8) ptr @_ZNK6duckdb6vectorINS_10unique_ptrINS_10ExpressionESt14default_deleteIS2_ELb1EEELb1EEixEm(ptr noundef nonnull align 8 dereferenceable(24) %9, i64 noundef 0)
  %11 = tail call noundef ptr @_ZNK6duckdb10unique_ptrINS_10ExpressionESt14default_deleteIS1_ELb1EEptEv(ptr noundef nonnull align 8 dereferenceable(8) %10)
  %12 = getelementptr inbounds nuw i8, ptr %11, i64 56
  %13 = tail call noundef zeroext i8 @_ZN6duckdb11DecimalType8GetScaleERKNS_11LogicalTypeE(ptr noundef nonnull align 8 dereferenceable(24) %12)
  call void @llvm.lifetime.start.p0(i64 16, ptr nonnull %5) #23
  %14 = zext i8 %13 to i64
  %15 = getelementptr inbounds nuw [40 x %"struct.duckdb::hugeint_t"], ptr @_ZN6duckdb7Hugeint13POWERS_OF_TENE, i64 0, i64 %14
  %.sroa.01.0.copyload.i = load i64, ptr %15, align 16, !tbaa !145
  %.sroa.2.0..sroa_idx.i = getelementptr inbounds nuw i8, ptr %15, i64 8
  %.sroa.2.0.copyload.i = load i64, ptr %.sroa.2.0..sroa_idx.i, align 8, !tbaa !145
  store i64 %.sroa.01.0.copyload.i, ptr %5, align 8
  %16 = getelementptr inbounds nuw i8, ptr %5, i64 8
  store i64 %.sroa.2.0.copyload.i, ptr %16, align 8
  %17 = tail call noundef nonnull align 8 dereferenceable(104) ptr @_ZN6duckdb6vectorINS_6VectorELb1EEixEm(ptr noundef nonnull align 8 dereferenceable(64) %0, i64 noundef 0)
  %18 = getelementptr inbounds nuw i8, ptr %0, i64 24
  %19 = load i64, ptr %18, align 8, !tbaa !39
  call void @llvm.lifetime.start.p0(i64 8, ptr nonnull %4)
  store ptr %5, ptr %4, align 8
  call void @_ZN6duckdb13UnaryExecutor15ExecuteStandardINS_9hugeint_tES2_NS_18UnaryLambdaWrapperEZNS_19CeilDecimalOperator9OperationIS2_NS_7HugeintEEEvRNS_9DataChunkEhRNS_6VectorEEUlS2_E_EEvSA_SA_mPvbNS_14FunctionErrorsE(ptr noundef nonnull align 8 dereferenceable(104) %17, ptr noundef nonnull align 8 dereferenceable(104) %2, i64 noundef %19, ptr noundef nonnull %4, i1 noundef zeroext false, i8 noundef zeroext 1)
  call void @llvm.lifetime.end.p0(i64 8, ptr nonnull %4)
  call void @llvm.lifetime.end.p0(i64 16, ptr nonnull %5) #23
  ret void
}